target datalayout = "e-m:e-p270:32:32-p271:32:32-p272:64:64-i64:64-i128:128-f80:128-n8:16:32:64-S128"
target triple = "x86_64-pc-linux-gnu"

%"class.glslang::HlslGrammar" = type { %"class.glslang::HlslTokenStream.base", ptr, ptr, i8, ptr }
%"class.glslang::HlslTokenStream.base" = type <{ ptr, %"struct.glslang::HlslToken", ptr, %"class.glslang::TVector", %"class.glslang::TVector.0", %"class.glslang::TVector.4", [2 x %"struct.glslang::HlslToken"], i32, [4 x i8], [2 x %"struct.glslang::HlslToken"], i32 }>
%"struct.glslang::HlslToken" = type { %"struct.glslang::TSourceLoc", i32, %union.anon }
%"struct.glslang::TSourceLoc" = type { ptr, i32, i32, i32 }
%union.anon = type { ptr }
%"class.glslang::TVector" = type { %"class.std::vector" }
%"class.std::vector" = type { %"struct.std::_Vector_base" }
%"struct.std::_Vector_base" = type { %"struct.std::_Vector_base<const glslang::TVector<glslang::HlslToken> *, glslang::pool_allocator<const glslang::TVector<glslang::HlslToken> *>>::_Vector_impl" }
%"struct.std::_Vector_base<const glslang::TVector<glslang::HlslToken> *, glslang::pool_allocator<const glslang::TVector<glslang::HlslToken> *>>::_Vector_impl" = type { %"class.glslang::pool_allocator", %"struct.std::_Vector_base<const glslang::TVector<glslang::HlslToken> *, glslang::pool_allocator<const glslang::TVector<glslang::HlslToken> *>>::_Vector_impl_data" }
%"class.glslang::pool_allocator" = type { ptr }
%"struct.std::_Vector_base<const glslang::TVector<glslang::HlslToken> *, glslang::pool_allocator<const glslang::TVector<glslang::HlslToken> *>>::_Vector_impl_data" = type { ptr, ptr, ptr }
%"class.glslang::TVector.0" = type { %"class.std::vector.1" }
%"class.std::vector.1" = type { %"struct.std::_Vector_base.2" }
%"struct.std::_Vector_base.2" = type { %"struct.std::_Vector_base<int, glslang::pool_allocator<int>>::_Vector_impl" }
%"struct.std::_Vector_base<int, glslang::pool_allocator<int>>::_Vector_impl" = type { %"class.glslang::pool_allocator.3", %"struct.std::_Vector_base<int, glslang::pool_allocator<int>>::_Vector_impl_data" }
%"class.glslang::pool_allocator.3" = type { ptr }
%"struct.std::_Vector_base<int, glslang::pool_allocator<int>>::_Vector_impl_data" = type { ptr, ptr, ptr }
%"class.glslang::TVector.4" = type { %"class.std::vector.5" }
%"class.std::vector.5" = type { %"struct.std::_Vector_base.6" }
%"struct.std::_Vector_base.6" = type { %"struct.std::_Vector_base<glslang::HlslToken, glslang::pool_allocator<glslang::HlslToken>>::_Vector_impl" }
%"struct.std::_Vector_base<glslang::HlslToken, glslang::pool_allocator<glslang::HlslToken>>::_Vector_impl" = type { %"class.glslang::pool_allocator.7", %"struct.std::_Vector_base<glslang::HlslToken, glslang::pool_allocator<glslang::HlslToken>>::_Vector_impl_data" }
%"class.glslang::pool_allocator.7" = type { ptr }
%"struct.std::_Vector_base<glslang::HlslToken, glslang::pool_allocator<glslang::HlslToken>>::_Vector_impl_data" = type { ptr, ptr, ptr }
%"class.glslang::HlslTokenStream" = type <{ ptr, %"struct.glslang::HlslToken", ptr, %"class.glslang::TVector", %"class.glslang::TVector.0", %"class.glslang::TVector.4", [2 x %"struct.glslang::HlslToken"], i32, [4 x i8], [2 x %"struct.glslang::HlslToken"], i32, [4 x i8] }>

@.str = private unnamed_addr constant [9 x i8] c"Expected\00", align 1
@.str.1 = private unnamed_addr constant [1 x i8] zeroinitializer, align 1
@.str.39 = private unnamed_addr constant [2 x i8] c";\00", align 1

; Function Attrs: mustprogress nounwind uwtable
define void @_ZN7glslang11HlslGrammar8expectedEPKc(ptr noundef nonnull align 8 dereferenceable(360) %0, ptr noundef %1) #0 align 2 {
  %3 = alloca ptr, align 8
  %4 = alloca ptr, align 8
  store ptr %0, ptr %3, align 8
  store ptr %1, ptr %4, align 8
  %5 = load ptr, ptr %3, align 8
  %6 = getelementptr inbounds %"class.glslang::HlslGrammar", ptr %5, i32 0, i32 1
  %7 = load ptr, ptr %6, align 8
  %8 = getelementptr inbounds %"class.glslang::HlslTokenStream", ptr %5, i32 0, i32 1
  %9 = getelementptr inbounds %"struct.glslang::HlslToken", ptr %8, i32 0, i32 0
  %10 = load ptr, ptr %4, align 8
  %11 = load ptr, ptr %7, align 8
  %12 = getelementptr inbounds ptr, ptr %11, i64 43
  %13 = load ptr, ptr %12, align 8
  call void (ptr, ptr, ptr, ptr, ptr, ...) %13(ptr noundef nonnull align 8 dereferenceable(1280) %7, ptr noundef nonnull align 8 dereferenceable(24) %9, ptr noundef @.str, ptr noundef %10, ptr noundef @.str.1)
  ret void
}

; Function Attrs: mustprogress nounwind uwtable
define noundef zeroext i1 @_ZN7glslang11HlslGrammar21acceptSimpleStatementERP11TIntermNode(ptr noundef nonnull align 8 dereferenceable(360) %0, ptr noundef nonnull align 8 dereferenceable(8) %1) #0 align 2 {
  %3 = alloca i1, align 1
  %4 = alloca ptr, align 8
  %5 = alloca ptr, align 8
  %6 = alloca ptr, align 8
  store ptr %0, ptr %4, align 8
  store ptr %1, ptr %5, align 8
  %7 = load ptr, ptr %4, align 8
  %8 = call noundef zeroext i1 @_ZN7glslang15HlslTokenStream16acceptTokenClassENS_15EHlslTokenClassE(ptr noundef nonnull align 8 dereferenceable(324) %7, i32 noundef 365)
  br i1 %8, label %9, label %10

9:                                                ; preds = %2
  store i1 true, ptr %3, align 1
  br label %24

10:                                               ; preds = %2
  %11 = load ptr, ptr %5, align 8
  %12 = call noundef zeroext i1 @_ZN7glslang11HlslGrammar17acceptDeclarationERP11TIntermNode(ptr noundef nonnull align 8 dereferenceable(360) %7, ptr noundef nonnull align 8 dereferenceable(8) %11)
  br i1 %12, label %13, label %14

13:                                               ; preds = %10
  store i1 true, ptr %3, align 1
  br label %24

14:                                               ; preds = %10
  %15 = call noundef zeroext i1 @_ZN7glslang11HlslGrammar16acceptExpressionERPNS_12TIntermTypedE(ptr noundef nonnull align 8 dereferenceable(360) %7, ptr noundef nonnull align 8 dereferenceable(8) %6)
  br i1 %15, label %16, label %19

16:                                               ; preds = %14
  %17 = load ptr, ptr %6, align 8
  %18 = load ptr, ptr %5, align 8
  store ptr %17, ptr %18, align 8
  br label %20

19:                                               ; preds = %14
  store i1 false, ptr %3, align 1
  br label %24

20:                                               ; preds = %16
  %21 = call noundef zeroext i1 @_ZN7glslang15HlslTokenStream16acceptTokenClassENS_15EHlslTokenClassE(ptr noundef nonnull align 8 dereferenceable(324) %7, i32 noundef 365)
  br i1 %21, label %22, label %23

22:                                               ; preds = %20
  store i1 true, ptr %3, align 1
  br label %24

23:                                               ; preds = %20
  call void @_ZN7glslang11HlslGrammar8expectedEPKc(ptr noundef nonnull align 8 dereferenceable(360) %7, ptr noundef @.str.39)
  store i1 false, ptr %3, align 1
  br label %24

24:                                               ; preds = %23, %22, %19, %13, %9
  %25 = load i1, ptr %3, align 1
  ret i1 %25
}