; Function Attrs: mustprogress nounwind uwtable
define noundef zeroext i1 @_ZN7glslang11HlslGrammar21acceptSimpleStatementERP11TIntermNode(ptr noundef nonnull align 8 dereferenceable(360) %0, ptr nocapture noundef nonnull align 8 dereferenceable(8) %1) local_unnamed_addr #0 align 2 {
  %3 = alloca ptr, align 8
  %4 = tail call noundef zeroext i1 @_ZN7glslang15HlslTokenStream16acceptTokenClassENS_15EHlslTokenClassE(ptr noundef nonnull align 8 dereferenceable(324) %0, i32 noundef 365) #16
  br i1 %4, label %19, label %5

5:                                                ; preds = %2
  %6 = tail call noundef zeroext i1 @_ZN7glslang11HlslGrammar17acceptDeclarationERP11TIntermNode(ptr noundef nonnull align 8 dereferenceable(360) %0, ptr noundef nonnull align 8 dereferenceable(8) %1)
  br i1 %6, label %19, label %7

7:                                                ; preds = %5
  %8 = call noundef zeroext i1 @_ZN7glslang11HlslGrammar16acceptExpressionERPNS_12TIntermTypedE(ptr noundef nonnull align 8 dereferenceable(360) %0, ptr noundef nonnull align 8 dereferenceable(8) %3)
  br i1 %8, label %9, label %19

9:                                                ; preds = %7
  %10 = load ptr, ptr %3, align 8
  store ptr %10, ptr %1, align 8
  %11 = call noundef zeroext i1 @_ZN7glslang15HlslTokenStream16acceptTokenClassENS_15EHlslTokenClassE(ptr noundef nonnull align 8 dereferenceable(324) %0, i32 noundef 365) #16
  br i1 %11, label %19, label %12

12:                                               ; preds = %9
  %13 = getelementptr inbounds i8, ptr %0, i64 328
  %14 = load ptr, ptr %13, align 8
  %15 = getelementptr inbounds i8, ptr %0, i64 8
  %16 = load ptr, ptr %14, align 8
  %17 = getelementptr inbounds i8, ptr %16, i64 344
  %18 = load ptr, ptr %17, align 8
  call void (ptr, ptr, ptr, ptr, ptr, ...) %18(ptr noundef nonnull align 8 dereferenceable(1280) %14, ptr noundef nonnull align 8 dereferenceable(24) %15, ptr noundef nonnull @.str, ptr noundef nonnull @.str.39, ptr noundef nonnull @.str.1) #16
  br label %19

19:                                               ; preds = %9, %7, %5, %2, %12
  %.0 = phi i1 [ false, %12 ], [ true, %2 ], [ true, %5 ], [ false, %7 ], [ true, %9 ]
  ret i1 %.0
}